; ModuleID = '20/78.c'
source_filename = "20/78.c"
target datalayout = "e-m:e-p270:32:32-p271:32:32-p272:64:64-i64:64-f80:128-n8:16:32:64-S128"
target triple = "x86_64-pc-linux-gnu"

@.str = private unnamed_addr constant [4 x i8] c"%s\0A\00", align 1

; Function Attrs: noinline nounwind uwtable
define dso_local void @main() #0 {
  %1 = alloca [10 x [15 x i8]], align 16
  %2 = alloca [4 x i8], align 1
  %3 = alloca i32, align 4
  %4 = alloca i32, align 4
  %5 = alloca i8, align 1
  %6 = bitcast [10 x [15 x i8]]* %1 to i8*
  call void @llvm.memset.p0i8.i64(i8* align 16 %6, i8 0, i64 150, i1 false)
  store i32 0, i32* %3, align 4
  br label %7

7:                                                ; preds = %50, %0
  %8 = call i32 @getchar()
  %9 = trunc i32 %8 to i8
  store i8 %9, i8* %5, align 1
  %10 = sext i8 %9 to i32
  %11 = icmp eq i32 %10, -1
  br i1 %11, label %12, label %13

12:                                               ; preds = %7
  br label %53

13:                                               ; preds = %7
  %14 = load i8, i8* %5, align 1
  %15 = load i32, i32* %3, align 4
  %16 = sext i32 %15 to i64
  %17 = getelementptr inbounds [10 x [15 x i8]], [10 x [15 x i8]]* %1, i64 0, i64 %16
  %18 = getelementptr inbounds [15 x i8], [15 x i8]* %17, i64 0, i64 0
  store i8 %14, i8* %18, align 1
  store i32 1, i32* %4, align 4
  br label %19

19:                                               ; preds = %33, %13
  %20 = call i32 @getchar()
  %21 = trunc i32 %20 to i8
  store i8 %21, i8* %5, align 1
  %22 = sext i8 %21 to i32
  %23 = icmp eq i32 %22, 32
  br i1 %23, label %24, label %25

24:                                               ; preds = %19
  br label %36

25:                                               ; preds = %19
  %26 = load i8, i8* %5, align 1
  %27 = load i32, i32* %3, align 4
  %28 = sext i32 %27 to i64
  %29 = getelementptr inbounds [10 x [15 x i8]], [10 x [15 x i8]]* %1, i64 0, i64 %28
  %30 = load i32, i32* %4, align 4
  %31 = sext i32 %30 to i64
  %32 = getelementptr inbounds [15 x i8], [15 x i8]* %29, i64 0, i64 %31
  store i8 %26, i8* %32, align 1
  br label %33

33:                                               ; preds = %25
  %34 = load i32, i32* %4, align 4
  %35 = add nsw i32 %34, 1
  store i32 %35, i32* %4, align 4
  br label %19

36:                                               ; preds = %24
  br label %37

37:                                               ; preds = %36
  %38 = getelementptr inbounds [4 x i8], [4 x i8]* %2, i64 0, i64 0
  %39 = call i32 (i8*, ...) bitcast (i32 (...)* @gets to i32 (i8*, ...)*)(i8* %38)
  %40 = load i32, i32* %3, align 4
  %41 = sext i32 %40 to i64
  %42 = getelementptr inbounds [10 x [15 x i8]], [10 x [15 x i8]]* %1, i64 0, i64 %41
  %43 = getelementptr inbounds [15 x i8], [15 x i8]* %42, i64 0, i64 0
  %44 = getelementptr inbounds [4 x i8], [4 x i8]* %2, i64 0, i64 0
  call void @insert(i8* %43, i8* %44)
  %45 = load i32, i32* %3, align 4
  %46 = sext i32 %45 to i64
  %47 = getelementptr inbounds [10 x [15 x i8]], [10 x [15 x i8]]* %1, i64 0, i64 %46
  %48 = getelementptr inbounds [15 x i8], [15 x i8]* %47, i64 0, i64 0
  %49 = call i32 (i8*, ...) @printf(i8* getelementptr inbounds ([4 x i8], [4 x i8]* @.str, i64 0, i64 0), i8* %48)
  br label %50

50:                                               ; preds = %37
  %51 = load i32, i32* %3, align 4
  %52 = add nsw i32 %51, 1
  store i32 %52, i32* %3, align 4
  br label %7

53:                                               ; preds = %12
  ret void
}

; Function Attrs: argmemonly nounwind willreturn
declare void @llvm.memset.p0i8.i64(i8* nocapture writeonly, i8, i64, i1 immarg) #1

declare dso_local i32 @getchar() #2

declare dso_local i32 @gets(...) #2

; Function Attrs: noinline nounwind uwtable
define dso_local void @insert(i8* %0, i8* %1) #0 {
  %3 = alloca i8*, align 8
  %4 = alloca i8*, align 8
  %5 = alloca i32, align 4
  %6 = alloca i32, align 4
  %7 = alloca i32, align 4
  store i8* %0, i8** %3, align 8
  store i8* %1, i8** %4, align 8
  store i32 0, i32* %6, align 4
  %8 = load i8*, i8** %3, align 8
  %9 = call i64 @strlen(i8* %8) #4
  %10 = trunc i64 %9 to i32
  store i32 %10, i32* %7, align 4
  store i32 1, i32* %5, align 4
  br label %11

11:                                               ; preds = %32, %2
  %12 = load i32, i32* %5, align 4
  %13 = load i32, i32* %7, align 4
  %14 = icmp slt i32 %12, %13
  br i1 %14, label %15, label %35

15:                                               ; preds = %11
  %16 = load i8*, i8** %3, align 8
  %17 = load i32, i32* %5, align 4
  %18 = sext i32 %17 to i64
  %19 = getelementptr inbounds i8, i8* %16, i64 %18
  %20 = load i8, i8* %19, align 1
  %21 = sext i8 %20 to i32
  %22 = load i8*, i8** %3, align 8
  %23 = load i32, i32* %6, align 4
  %24 = sext i32 %23 to i64
  %25 = getelementptr inbounds i8, i8* %22, i64 %24
  %26 = load i8, i8* %25, align 1
  %27 = sext i8 %26 to i32
  %28 = icmp sgt i32 %21, %27
  br i1 %28, label %29, label %31

29:                                               ; preds = %15
  %30 = load i32, i32* %5, align 4
  store i32 %30, i32* %6, align 4
  br label %31

31:                                               ; preds = %29, %15
  br label %32

32:                                               ; preds = %31
  %33 = load i32, i32* %5, align 4
  %34 = add nsw i32 %33, 1
  store i32 %34, i32* %5, align 4
  br label %11

35:                                               ; preds = %11
  %36 = load i8*, i8** %3, align 8
  %37 = call i64 @strlen(i8* %36) #4
  %38 = sub i64 %37, 1
  %39 = trunc i64 %38 to i32
  store i32 %39, i32* %5, align 4
  br label %40

40:                                               ; preds = %55, %35
  %41 = load i32, i32* %5, align 4
  %42 = load i32, i32* %6, align 4
  %43 = icmp sgt i32 %41, %42
  br i1 %43, label %44, label %58

44:                                               ; preds = %40
  %45 = load i8*, i8** %3, align 8
  %46 = load i32, i32* %5, align 4
  %47 = sext i32 %46 to i64
  %48 = getelementptr inbounds i8, i8* %45, i64 %47
  %49 = load i8, i8* %48, align 1
  %50 = load i8*, i8** %3, align 8
  %51 = load i32, i32* %5, align 4
  %52 = add nsw i32 %51, 3
  %53 = sext i32 %52 to i64
  %54 = getelementptr inbounds i8, i8* %50, i64 %53
  store i8 %49, i8* %54, align 1
  br label %55

55:                                               ; preds = %44
  %56 = load i32, i32* %5, align 4
  %57 = add nsw i32 %56, -1
  store i32 %57, i32* %5, align 4
  br label %40

58:                                               ; preds = %40
  store i32 0, i32* %5, align 4
  br label %59

59:                                               ; preds = %75, %58
  %60 = load i32, i32* %5, align 4
  %61 = icmp slt i32 %60, 3
  br i1 %61, label %62, label %78

62:                                               ; preds = %59
  %63 = load i8*, i8** %4, align 8
  %64 = load i32, i32* %5, align 4
  %65 = sext i32 %64 to i64
  %66 = getelementptr inbounds i8, i8* %63, i64 %65
  %67 = load i8, i8* %66, align 1
  %68 = load i8*, i8** %3, align 8
  %69 = load i32, i32* %6, align 4
  %70 = load i32, i32* %5, align 4
  %71 = add nsw i32 %69, %70
  %72 = add nsw i32 %71, 1
  %73 = sext i32 %72 to i64
  %74 = getelementptr inbounds i8, i8* %68, i64 %73
  store i8 %67, i8* %74, align 1
  br label %75

75:                                               ; preds = %62
  %76 = load i32, i32* %5, align 4
  %77 = add nsw i32 %76, 1
  store i32 %77, i32* %5, align 4
  br label %59

78:                                               ; preds = %59
  ret void
}

declare dso_local i32 @printf(i8*, ...) #2

; Function Attrs: nounwind readonly
declare dso_local i64 @strlen(i8*) #3


!llvm.module.flags = !{!0}
!llvm.ident = !{!1}

!0 = !{i32 1, !"wchar_size", i32 4}
!1 = !{!"clang version 10.0.0-4ubuntu1 "}
